target datalayout = "e-m:e-p270:32:32-p271:32:32-p272:64:64-i64:64-i128:128-f80:128-n8:16:32:64-S128"
target triple = "x86_64-pc-linux-gnu"

%struct.trace_key = type { ptr, i32, i8 }
%struct.index_state = type { ptr, i32, i32, i32, i32, ptr, ptr, ptr, %struct.cache_time, i8, i32, %struct.hashmap, %struct.hashmap, %struct.object_id, ptr, ptr, ptr, ptr, ptr, ptr, ptr }
%struct.cache_time = type { i32, i32 }
%struct.hashmap = type { ptr, ptr, ptr, i32, i32, i32, i32, i8 }
%struct.object_id = type { [32 x i8], i32 }
%struct.cache_entry = type { %struct.hashmap_entry, %struct.stat_data, i32, i32, i32, i32, i32, %struct.object_id, [0 x i8] }
%struct.hashmap_entry = type { ptr, i32 }
%struct.stat_data = type { %struct.cache_time, %struct.cache_time, i32, i32, i32, i32, i32 }
%struct.stat = type { i64, i64, i64, i32, i32, i32, i32, i64, i64, i64, i64, %struct.timespec, %struct.timespec, %struct.timespec, [3 x i64] }
%struct.timespec = type { i64, i64 }

@assume_unchanged = external global i32, align 4
@trace_fsmonitor = external global %struct.trace_key, align 8
@.str.49 = private unnamed_addr constant [14 x i8] c"./fsmonitor.h\00", align 1
@.str.50 = private unnamed_addr constant [26 x i8] c"mark_fsmonitor_clean '%s'\00", align 1

; Function Attrs: inlinehint nounwind uwtable
define internal i32 @trace_pass_fl(ptr noundef %0) #3 {
  %2 = alloca ptr, align 8
  store ptr %0, ptr %2, align 8, !tbaa !102
  %3 = load ptr, ptr %2, align 8, !tbaa !102
  %4 = getelementptr inbounds nuw %struct.trace_key, ptr %3, i32 0, i32 1
  %5 = load i32, ptr %4, align 8, !tbaa !104
  %6 = icmp ne i32 %5, 0
  br i1 %6, label %15, label %7

7:                                                ; preds = %1
  %8 = load ptr, ptr %2, align 8, !tbaa !102
  %9 = getelementptr inbounds nuw %struct.trace_key, ptr %8, i32 0, i32 2
  %10 = load i8, ptr %9, align 4
  %11 = and i8 %10, 1
  %12 = zext i8 %11 to i32
  %13 = icmp ne i32 %12, 0
  %14 = xor i1 %13, true
  br label %15

15:                                               ; preds = %7, %1
  %16 = phi i1 [ true, %1 ], [ %14, %7 ]
  %17 = zext i1 %16 to i32
  ret i32 %17
}

; Function Attrs: inlinehint nounwind uwtable
define internal void @mark_fsmonitor_valid(ptr noundef %0, ptr noundef %1) #3 {
  %3 = alloca ptr, align 8
  %4 = alloca ptr, align 8
  %5 = alloca i32, align 4
  %6 = alloca i32, align 4
  store ptr %0, ptr %3, align 8, !tbaa !4
  store ptr %1, ptr %4, align 8, !tbaa !29
  call void @llvm.lifetime.start.p0(i64 4, ptr %5) #12
  %7 = load ptr, ptr %3, align 8, !tbaa !4
  %8 = getelementptr inbounds nuw %struct.index_state, ptr %7, i32 0, i32 19
  %9 = load ptr, ptr %8, align 8, !tbaa !41
  %10 = call i32 @fsm_settings__get_mode(ptr noundef %9)
  store i32 %10, ptr %5, align 4, !tbaa !9
  %11 = load i32, ptr %5, align 4, !tbaa !9
  %12 = icmp sgt i32 %11, 0
  br i1 %12, label %13, label %45

13:                                               ; preds = %2
  %14 = load ptr, ptr %4, align 8, !tbaa !29
  %15 = getelementptr inbounds nuw %struct.cache_entry, ptr %14, i32 0, i32 3
  %16 = load i32, ptr %15, align 8, !tbaa !9
  %17 = and i32 %16, 2097152
  %18 = icmp ne i32 %17, 0
  br i1 %18, label %45, label %19

19:                                               ; preds = %13
  %20 = load ptr, ptr %4, align 8, !tbaa !29
  %21 = getelementptr inbounds nuw %struct.cache_entry, ptr %20, i32 0, i32 2
  %22 = load i32, ptr %21, align 4, !tbaa !9
  %23 = and i32 %22, 61440
  %24 = icmp eq i32 %23, 57344
  br i1 %24, label %25, label %26

25:                                               ; preds = %19
  store i32 1, ptr %6, align 4
  br label %46

26:                                               ; preds = %19
  %27 = load ptr, ptr %3, align 8, !tbaa !4
  %28 = getelementptr inbounds nuw %struct.index_state, ptr %27, i32 0, i32 4
  %29 = load i32, ptr %28, align 4, !tbaa !33
  %30 = or i32 %29, 256
  store i32 %30, ptr %28, align 4, !tbaa !33
  %31 = load ptr, ptr %4, align 8, !tbaa !29
  %32 = getelementptr inbounds nuw %struct.cache_entry, ptr %31, i32 0, i32 3
  %33 = load i32, ptr %32, align 8, !tbaa !9
  %34 = or i32 %33, 2097152
  store i32 %34, ptr %32, align 8, !tbaa !9
  br label %35

35:                                               ; preds = %26
  %36 = call i32 @trace_pass_fl(ptr noundef @trace_fsmonitor)
  %37 = icmp ne i32 %36, 0
  br i1 %37, label %38, label %42

38:                                               ; preds = %35
  %39 = load ptr, ptr %4, align 8, !tbaa !29
  %40 = getelementptr inbounds nuw %struct.cache_entry, ptr %39, i32 0, i32 8
  %41 = getelementptr inbounds [0 x i8], ptr %40, i64 0, i64 0
  call void (ptr, i32, ptr, ptr, ...) @trace_printf_key_fl(ptr noundef @.str.49, i32 noundef 49, ptr noundef @trace_fsmonitor, ptr noundef @.str.50, ptr noundef %41)
  br label %42

42:                                               ; preds = %38, %35
  br label %43

43:                                               ; preds = %42
  br label %44

44:                                               ; preds = %43
  br label %45

45:                                               ; preds = %44, %13, %2
  store i32 0, ptr %6, align 4
  br label %46

46:                                               ; preds = %45, %25
  call void @llvm.lifetime.end.p0(i64 4, ptr %5) #12
  %47 = load i32, ptr %6, align 4
  switch i32 %47, label %49 [
    i32 0, label %48
    i32 1, label %48
  ]

48:                                               ; preds = %46, %46
  ret void

49:                                               ; preds = %46
  unreachable
}

; Function Attrs: nounwind uwtable
define dso_local void @fill_stat_cache_info(ptr noundef %0, ptr noundef %1, ptr noundef %2) #0 {
  %4 = alloca ptr, align 8
  %5 = alloca ptr, align 8
  %6 = alloca ptr, align 8
  store ptr %0, ptr %4, align 8, !tbaa !4
  store ptr %1, ptr %5, align 8, !tbaa !29
  store ptr %2, ptr %6, align 8, !tbaa !36
  %7 = load ptr, ptr %5, align 8, !tbaa !29
  %8 = getelementptr inbounds nuw %struct.cache_entry, ptr %7, i32 0, i32 1
  %9 = load ptr, ptr %6, align 8, !tbaa !36
  call void @fill_stat_data(ptr noundef %8, ptr noundef %9)
  %10 = load i32, ptr @assume_unchanged, align 4, !tbaa !9
  %11 = icmp ne i32 %10, 0
  br i1 %11, label %12, label %17

12:                                               ; preds = %3
  %13 = load ptr, ptr %5, align 8, !tbaa !29
  %14 = getelementptr inbounds nuw %struct.cache_entry, ptr %13, i32 0, i32 3
  %15 = load i32, ptr %14, align 8, !tbaa !9
  %16 = or i32 %15, 32768
  store i32 %16, ptr %14, align 8, !tbaa !9
  br label %17

17:                                               ; preds = %12, %3
  %18 = load ptr, ptr %6, align 8, !tbaa !36
  %19 = getelementptr inbounds nuw %struct.stat, ptr %18, i32 0, i32 3
  %20 = load i32, ptr %19, align 8, !tbaa !38
  %21 = and i32 %20, 61440
  %22 = icmp eq i32 %21, 32768
  br i1 %22, label %23, label %30

23:                                               ; preds = %17
  %24 = load ptr, ptr %5, align 8, !tbaa !29
  %25 = getelementptr inbounds nuw %struct.cache_entry, ptr %24, i32 0, i32 3
  %26 = load i32, ptr %25, align 8, !tbaa !9
  %27 = or i32 %26, 262144
  store i32 %27, ptr %25, align 8, !tbaa !9
  %28 = load ptr, ptr %4, align 8, !tbaa !4
  %29 = load ptr, ptr %5, align 8, !tbaa !29
  call void @mark_fsmonitor_valid(ptr noundef %28, ptr noundef %29)
  br label %30

30:                                               ; preds = %23, %17
  ret void
}