; Function Attrs: nounwind uwtable
define dso_local void @fill_stat_cache_info(ptr noundef captures(none) %0, ptr noundef %1, ptr noundef %2) local_unnamed_addr #0 {
  %4 = getelementptr inbounds nuw i8, ptr %1, i64 16
  tail call void @fill_stat_data(ptr noundef nonnull %4, ptr noundef %2) #30
  %5 = load i32, ptr @assume_unchanged, align 4, !tbaa !32
  %.not = icmp eq i32 %5, 0
  br i1 %.not, label %10, label %6

6:                                                ; preds = %3
  %7 = getelementptr inbounds nuw i8, ptr %1, i64 56
  %8 = load i32, ptr %7, align 8, !tbaa !32
  %9 = or i32 %8, 32768
  store i32 %9, ptr %7, align 8, !tbaa !32
  br label %10

10:                                               ; preds = %6, %3
  %11 = getelementptr inbounds nuw i8, ptr %2, i64 24
  %12 = load i32, ptr %11, align 8, !tbaa !42
  %13 = and i32 %12, 61440
  %14 = icmp eq i32 %13, 32768
  br i1 %14, label %15, label %mark_fsmonitor_valid.exit

15:                                               ; preds = %10
  %16 = getelementptr inbounds nuw i8, ptr %1, i64 56
  %17 = load i32, ptr %16, align 8, !tbaa !32
  %18 = or i32 %17, 262144
  store i32 %18, ptr %16, align 8, !tbaa !32
  %19 = getelementptr inbounds nuw i8, ptr %0, i64 240
  %20 = load ptr, ptr %19, align 8, !tbaa !46
  %21 = tail call i32 @fsm_settings__get_mode(ptr noundef %20) #30
  %22 = icmp sgt i32 %21, 0
  br i1 %22, label %23, label %mark_fsmonitor_valid.exit

23:                                               ; preds = %15
  %24 = load i32, ptr %16, align 8, !tbaa !32
  %25 = and i32 %24, 2097152
  %.not.i = icmp eq i32 %25, 0
  br i1 %.not.i, label %26, label %mark_fsmonitor_valid.exit

26:                                               ; preds = %23
  %27 = getelementptr inbounds nuw i8, ptr %1, i64 52
  %28 = load i32, ptr %27, align 4, !tbaa !32
  %29 = and i32 %28, 61440
  %30 = icmp eq i32 %29, 57344
  br i1 %30, label %mark_fsmonitor_valid.exit, label %31

31:                                               ; preds = %26
  %32 = getelementptr inbounds nuw i8, ptr %0, i64 20
  %33 = load i32, ptr %32, align 4, !tbaa !33
  %34 = or i32 %33, 256
  store i32 %34, ptr %32, align 4, !tbaa !33
  %35 = load i32, ptr %16, align 8, !tbaa !32
  %36 = or i32 %35, 2097152
  store i32 %36, ptr %16, align 8, !tbaa !32
  %trace_fsmonitor.val.i = load i32, ptr getelementptr inbounds nuw (i8, ptr @trace_fsmonitor, i64 8), align 8, !tbaa !47
  %trace_fsmonitor.val7.i = load i8, ptr getelementptr inbounds nuw (i8, ptr @trace_fsmonitor, i64 12), align 4
  %.not.i.i = icmp eq i32 %trace_fsmonitor.val.i, 0
  %37 = and i8 %trace_fsmonitor.val7.i, 1
  %.not68.i = icmp ne i8 %37, 0
  %.not6.i = select i1 %.not.i.i, i1 %.not68.i, i1 false
  br i1 %.not6.i, label %mark_fsmonitor_valid.exit, label %38

38:                                               ; preds = %31
  %39 = getelementptr inbounds nuw i8, ptr %1, i64 108
  tail call void (ptr, i32, ptr, ptr, ...) @trace_printf_key_fl(ptr noundef nonnull @.str.49, i32 noundef 49, ptr noundef nonnull @trace_fsmonitor, ptr noundef nonnull @.str.50, ptr noundef nonnull %39) #30
  br label %mark_fsmonitor_valid.exit

mark_fsmonitor_valid.exit:                        ; preds = %38, %31, %26, %23, %15, %10
  ret void
}